target datalayout = "e-m:e-p270:32:32-p271:32:32-p272:64:64-i64:64-i128:128-f80:128-n8:16:32:64-S128"
target triple = "x86_64-pc-linux-gnu"

@.str.59 = private unnamed_addr constant [30 x i8] c"Assertion %s failed at %s:%d\0A\00", align 1
@.str.61 = private unnamed_addr constant [21 x i8] c"fftools/opt_common.c\00", align 1
@.str.158 = private unnamed_addr constant [15 x i8] c"i == nb_codecs\00", align 1

; Function Attrs: nounwind uwtable
define internal i32 @get_codecs_sorted(ptr noundef %0) #0 {
  %2 = alloca i32, align 4
  %3 = alloca ptr, align 8
  %4 = alloca ptr, align 8
  %5 = alloca ptr, align 8
  %6 = alloca i32, align 4
  %7 = alloca i32, align 4
  %8 = alloca i32, align 4
  store ptr %0, ptr %3, align 8, !tbaa !84
  call void @llvm.lifetime.start.p0(i64 8, ptr %4) #11
  store ptr null, ptr %4, align 8, !tbaa !24
  call void @llvm.lifetime.start.p0(i64 8, ptr %5) #11
  call void @llvm.lifetime.start.p0(i64 4, ptr %6) #11
  store i32 0, ptr %6, align 4, !tbaa !10
  call void @llvm.lifetime.start.p0(i64 4, ptr %7) #11
  store i32 0, ptr %7, align 4, !tbaa !10
  br label %9

9:                                                ; preds = %13, %1
  %10 = load ptr, ptr %4, align 8, !tbaa !24
  %11 = call ptr @avcodec_descriptor_next(ptr noundef %10)
  store ptr %11, ptr %4, align 8, !tbaa !24
  %12 = icmp ne ptr %11, null
  br i1 %12, label %13, label %16

13:                                               ; preds = %9
  %14 = load i32, ptr %6, align 4, !tbaa !10
  %15 = add i32 %14, 1
  store i32 %15, ptr %6, align 4, !tbaa !10
  br label %9, !llvm.loop !87

16:                                               ; preds = %9
  %17 = load i32, ptr %6, align 4, !tbaa !10
  %18 = zext i32 %17 to i64
  %19 = call noalias ptr @av_calloc(i64 noundef %18, i64 noundef 8)
  store ptr %19, ptr %5, align 8, !tbaa !71
  %20 = icmp ne ptr %19, null
  br i1 %20, label %22, label %21

21:                                               ; preds = %16
  store i32 -12, ptr %2, align 4
  store i32 1, ptr %8, align 4
  br label %49

22:                                               ; preds = %16
  store ptr null, ptr %4, align 8, !tbaa !24
  br label %23

23:                                               ; preds = %27, %22
  %24 = load ptr, ptr %4, align 8, !tbaa !24
  %25 = call ptr @avcodec_descriptor_next(ptr noundef %24)
  store ptr %25, ptr %4, align 8, !tbaa !24
  %26 = icmp ne ptr %25, null
  br i1 %26, label %27, label %34

27:                                               ; preds = %23
  %28 = load ptr, ptr %4, align 8, !tbaa !24
  %29 = load ptr, ptr %5, align 8, !tbaa !71
  %30 = load i32, ptr %7, align 4, !tbaa !10
  %31 = add i32 %30, 1
  store i32 %31, ptr %7, align 4, !tbaa !10
  %32 = zext i32 %30 to i64
  %33 = getelementptr inbounds nuw ptr, ptr %29, i64 %32
  store ptr %28, ptr %33, align 8, !tbaa !24
  br label %23, !llvm.loop !88

34:                                               ; preds = %23
  br label %35

35:                                               ; preds = %34
  %36 = load i32, ptr %7, align 4, !tbaa !10
  %37 = load i32, ptr %6, align 4, !tbaa !10
  %38 = icmp eq i32 %36, %37
  br i1 %38, label %40, label %39

39:                                               ; preds = %35
  call void (ptr, i32, ptr, ...) @av_log(ptr noundef null, i32 noundef 0, ptr noundef @.str.59, ptr noundef @.str.158, ptr noundef @.str.61, i32 noundef 651)
  call void @abort() #13
  unreachable

40:                                               ; preds = %35
  br label %41

41:                                               ; preds = %40
  br label %42

42:                                               ; preds = %41
  %43 = load ptr, ptr %5, align 8, !tbaa !71
  %44 = load i32, ptr %6, align 4, !tbaa !10
  %45 = zext i32 %44 to i64
  call void @qsort(ptr noundef %43, i64 noundef %45, i64 noundef 8, ptr noundef @compare_codec_desc)
  %46 = load ptr, ptr %5, align 8, !tbaa !71
  %47 = load ptr, ptr %3, align 8, !tbaa !84
  store ptr %46, ptr %47, align 8, !tbaa !71
  %48 = load i32, ptr %6, align 4, !tbaa !10
  store i32 %48, ptr %2, align 4
  store i32 1, ptr %8, align 4
  br label %49

49:                                               ; preds = %42, %21
  call void @llvm.lifetime.end.p0(i64 4, ptr %7) #11
  call void @llvm.lifetime.end.p0(i64 4, ptr %6) #11
  call void @llvm.lifetime.end.p0(i64 8, ptr %5) #11
  call void @llvm.lifetime.end.p0(i64 8, ptr %4) #11
  %50 = load i32, ptr %2, align 4
  ret i32 %50
}