; Function Attrs: nounwind uwtable
define internal fastcc i32 @get_codecs_sorted(ptr noundef nonnull writeonly captures(none) %0) unnamed_addr #2 {
  br label %2

2:                                                ; preds = %2, %1
  %.016 = phi ptr [ null, %1 ], [ %3, %2 ]
  %.014 = phi i32 [ 0, %1 ], [ %4, %2 ]
  %3 = tail call ptr @avcodec_descriptor_next(ptr noundef %.016) #17
  %.not = icmp eq ptr %3, null
  %4 = add i32 %.014, 1
  br i1 %.not, label %5, label %2, !llvm.loop !72

5:                                                ; preds = %2
  %6 = zext i32 %.014 to i64
  %7 = tail call noalias ptr @av_calloc(i64 noundef %6, i64 noundef 8) #17
  %.not20 = icmp eq ptr %7, null
  br i1 %.not20, label %17, label %.preheader

.preheader:                                       ; preds = %5
  %8 = tail call ptr @avcodec_descriptor_next(ptr noundef null) #17
  %.not2122 = icmp eq ptr %8, null
  br i1 %.not2122, label %._crit_edge, label %.lr.ph

.lr.ph:                                           ; preds = %.preheader, %.lr.ph
  %9 = phi ptr [ %13, %.lr.ph ], [ %8, %.preheader ]
  %.023 = phi i32 [ %10, %.lr.ph ], [ 0, %.preheader ]
  %10 = add i32 %.023, 1
  %11 = zext i32 %.023 to i64
  %12 = getelementptr inbounds nuw ptr, ptr %7, i64 %11
  store ptr %9, ptr %12, align 8, !tbaa !63
  %13 = tail call ptr @avcodec_descriptor_next(ptr noundef nonnull %9) #17
  %.not21 = icmp eq ptr %13, null
  br i1 %.not21, label %._crit_edge, label %.lr.ph, !llvm.loop !73

._crit_edge:                                      ; preds = %.lr.ph, %.preheader
  %.0.lcssa = phi i32 [ 0, %.preheader ], [ %10, %.lr.ph ]
  %14 = icmp eq i32 %.0.lcssa, %.014
  br i1 %14, label %16, label %15

15:                                               ; preds = %._crit_edge
  tail call void (ptr, i32, ptr, ...) @av_log(ptr noundef null, i32 noundef 0, ptr noundef nonnull @.str.59, ptr noundef nonnull @.str.158, ptr noundef nonnull @.str.61, i32 noundef 651) #17
  tail call void @abort() #19
  unreachable

16:                                               ; preds = %._crit_edge
  tail call void @qsort(ptr noundef nonnull %7, i64 noundef %6, i64 noundef 8, ptr noundef nonnull @compare_codec_desc) #17
  store ptr %7, ptr %0, align 8, !tbaa !61
  br label %17

17:                                               ; preds = %5, %16
  %.015 = phi i32 [ %.014, %16 ], [ -12, %5 ]
  ret i32 %.015
}